target datalayout = "e-m:e-p270:32:32-p271:32:32-p272:64:64-i64:64-i128:128-f80:128-n8:16:32:64-S128"
target triple = "x86_64-unknown-linux-gnu"

%struct.Notifier = type { ptr, %struct.anon.3 }
%struct.anon.3 = type { ptr, ptr }

; Function Attrs: nounwind sspstrong uwtable
define dso_local void @migration_remove_notifier(ptr noundef %notify) #0 {
entry:
  %notify.addr = alloca ptr, align 8
  store ptr %notify, ptr %notify.addr, align 8
  %0 = load ptr, ptr %notify.addr, align 8
  %notify1 = getelementptr inbounds %struct.Notifier, ptr %0, i32 0, i32 0
  %1 = load ptr, ptr %notify1, align 8
  %tobool = icmp ne ptr %1, null
  br i1 %tobool, label %if.then, label %if.end

if.then:                                          ; preds = %entry
  %2 = load ptr, ptr %notify.addr, align 8
  call void @notifier_remove(ptr noundef %2)
  %3 = load ptr, ptr %notify.addr, align 8
  %notify2 = getelementptr inbounds %struct.Notifier, ptr %3, i32 0, i32 0
  store ptr null, ptr %notify2, align 8
  br label %if.end

if.end:                                           ; preds = %if.then, %entry
  ret void
}