; Function Attrs: nounwind sspstrong uwtable
define dso_local void @migration_remove_notifier(ptr noundef %notify) local_unnamed_addr #0 {
entry:
  %0 = load ptr, ptr %notify, align 8
  %tobool.not = icmp eq ptr %0, null
  br i1 %tobool.not, label %if.end, label %if.then

if.then:                                          ; preds = %entry
  tail call void @notifier_remove(ptr noundef nonnull %notify) #19
  store ptr null, ptr %notify, align 8
  br label %if.end

if.end:                                           ; preds = %if.then, %entry
  ret void
}